target datalayout = "e-m:e-p270:32:32-p271:32:32-p272:64:64-i64:64-i128:128-f80:128-n8:16:32:64-S128"
target triple = "x86_64-pc-linux-gnu"

%"struct.zmq::socks_greeting_t" = type { [255 x i8], i64 }

; Function Attrs: mustprogress nounwind uwtable
define void @_ZN3zmq16socks_greeting_tC2EPKhh(ptr noundef nonnull align 8 dereferenceable(264) %0, ptr noundef %1, i8 noundef zeroext %2) unnamed_addr #0 align 2 {
  %4 = alloca ptr, align 8
  %5 = alloca ptr, align 8
  %6 = alloca i8, align 1
  %7 = alloca i8, align 1
  store ptr %0, ptr %4, align 8, !tbaa !3
  store ptr %1, ptr %5, align 8, !tbaa !12
  store i8 %2, ptr %6, align 1, !tbaa !8
  %8 = load ptr, ptr %4, align 8
  %9 = getelementptr inbounds nuw %"struct.zmq::socks_greeting_t", ptr %8, i32 0, i32 1
  %10 = load i8, ptr %6, align 1, !tbaa !8
  %11 = zext i8 %10 to i64
  store i64 %11, ptr %9, align 8, !tbaa !9
  call void @llvm.lifetime.start.p0(i64 1, ptr %7) #14
  store i8 0, ptr %7, align 1, !tbaa !8
  br label %12

12:                                               ; preds = %29, %3
  %13 = load i8, ptr %7, align 1, !tbaa !8
  %14 = zext i8 %13 to i32
  %15 = load i8, ptr %6, align 1, !tbaa !8
  %16 = zext i8 %15 to i32
  %17 = icmp slt i32 %14, %16
  br i1 %17, label %19, label %18

18:                                               ; preds = %12
  call void @llvm.lifetime.end.p0(i64 1, ptr %7) #14
  br label %32

19:                                               ; preds = %12
  %20 = load ptr, ptr %5, align 8, !tbaa !12
  %21 = load i8, ptr %7, align 1, !tbaa !8
  %22 = zext i8 %21 to i64
  %23 = getelementptr inbounds nuw i8, ptr %20, i64 %22
  %24 = load i8, ptr %23, align 1, !tbaa !8
  %25 = getelementptr inbounds nuw %"struct.zmq::socks_greeting_t", ptr %8, i32 0, i32 0
  %26 = load i8, ptr %7, align 1, !tbaa !8
  %27 = zext i8 %26 to i64
  %28 = getelementptr inbounds nuw [255 x i8], ptr %25, i64 0, i64 %27
  store i8 %24, ptr %28, align 1, !tbaa !8
  br label %29

29:                                               ; preds = %19
  %30 = load i8, ptr %7, align 1, !tbaa !8
  %31 = add i8 %30, 1
  store i8 %31, ptr %7, align 1, !tbaa !8
  br label %12, !llvm.loop !14

32:                                               ; preds = %18
  ret void
}