; Function Attrs: mustprogress nofree norecurse nosync nounwind memory(argmem: readwrite) uwtable
define void @_ZN3zmq16socks_greeting_tC2EPKhh(ptr noundef nonnull writeonly align 8 captures(none) dereferenceable(264) initializes((256, 264)) %0, ptr noundef readonly captures(none) %1, i8 noundef zeroext %2) unnamed_addr #1 align 2 {
  %4 = getelementptr inbounds nuw i8, ptr %0, i64 256
  %5 = zext i8 %2 to i64
  store i64 %5, ptr %4, align 8, !tbaa !3
  %.not = icmp eq i8 %2, 0
  br i1 %.not, label %._crit_edge, label %.lr.ph

._crit_edge:                                      ; preds = %.lr.ph, %3
  ret void

.lr.ph:                                           ; preds = %3, %.lr.ph
  %indvars.iv = phi i64 [ %indvars.iv.next, %.lr.ph ], [ 0, %3 ]
  %6 = getelementptr inbounds nuw i8, ptr %1, i64 %indvars.iv
  %7 = load i8, ptr %6, align 1, !tbaa !8
  %8 = getelementptr inbounds nuw [255 x i8], ptr %0, i64 0, i64 %indvars.iv
  store i8 %7, ptr %8, align 1, !tbaa !8
  %indvars.iv.next = add nuw nsw i64 %indvars.iv, 1
  %exitcond.not = icmp eq i64 %indvars.iv.next, %5
  br i1 %exitcond.not, label %._crit_edge, label %.lr.ph, !llvm.loop !9
}